	.cpu cortex-m4
	.eabi_attribute 27, 1
	.eabi_attribute 28, 1
	.eabi_attribute 20, 1
	.eabi_attribute 21, 1
	.eabi_attribute 23, 3
	.eabi_attribute 24, 1
	.eabi_attribute 25, 1
	.eabi_attribute 26, 1
	.eabi_attribute 30, 4
	.eabi_attribute 34, 1
	.eabi_attribute 18, 4
	.file	"utf.c"
	.text
.Ltext0:
	.section	.text.utf8EncodeRune,"ax",%progbits
	.align	1
	.global	utf8EncodeRune
	.syntax unified
	.thumb
	.thumb_func
	.fpu fpv4-sp-d16
	.type	utf8EncodeRune, %function
utf8EncodeRune:
.LVL0:
.LFB0:
	.file 1 "C:\\git\\simple_ble\\nRF5_SDK_17.0.2\\external\\utf_converter\\utf.c"
	.loc 1 13 1 view -0
	@ args = 0, pretend = 0, frame = 0
	@ frame_needed = 0, uses_anonymous_args = 0
	.loc 1 14 2 view .LVU1
	.loc 1 15 2 view .LVU2
	.loc 1 16 2 view .LVU3
	.loc 1 17 2 view .LVU4
	.loc 1 18 2 view .LVU5
	.loc 1 21 2 view .LVU6
	.loc 1 21 5 is_stmt 0 view .LVU7
	cmp	r0, #1114112
	.loc 1 13 1 view .LVU8
	push	{r4, r5, r6, lr}
.LCFI0:
	.loc 1 21 5 view .LVU9
	bcs	.L10
	.loc 1 24 2 is_stmt 1 view .LVU10
	.loc 1 24 21 is_stmt 0 view .LVU11
	sub	r3, r0, #55296
	.loc 1 24 5 view .LVU12
	cmp	r3, #2048
	bcc	.L10
	.loc 1 27 2 is_stmt 1 view .LVU13
	.loc 1 27 5 is_stmt 0 view .LVU14
	cmp	r0, #127
	.loc 1 28 5 view .LVU15
	uxtb	r2, r0
	.loc 1 27 5 view .LVU16
	bls	.L11
.LVL1:
	.loc 1 32 2 is_stmt 1 view .LVU17
	.loc 1 33 5 is_stmt 0 view .LVU18
	and	r2, r2, #63
	.loc 1 32 5 view .LVU19
	cmp	r0, #2048
	.loc 1 36 7 view .LVU20
	ubfx	r3, r0, #6, #8
	.loc 1 34 5 view .LVU21
	orr	r5, r2, #128
	.loc 1 32 5 view .LVU22
	bcs	.L4
	.loc 1 33 3 is_stmt 1 view .LVU23
.LVL2:
	.loc 1 34 3 view .LVU24
	.loc 1 35 3 view .LVU25
	.loc 1 36 3 view .LVU26
	.loc 1 37 3 view .LVU27
	.loc 1 17 10 is_stmt 0 view .LVU28
	movs	r4, #0
	.loc 1 37 5 view .LVU29
	orr	r2, r3, #192
.LVL3:
	.loc 1 38 3 is_stmt 1 view .LVU30
	.loc 1 39 3 view .LVU31
	.loc 1 38 5 is_stmt 0 view .LVU32
	movs	r0, #2
.LVL4:
	.loc 1 16 10 view .LVU33
	mov	r3, r4
.LVL5:
.L3:
	.loc 1 68 2 is_stmt 1 view .LVU34
	.loc 1 69 5 is_stmt 0 view .LVU35
	cmp	r0, #1
	.loc 1 68 13 view .LVU36
	strb	r2, [r1]
	.loc 1 69 2 is_stmt 1 view .LVU37
	.loc 1 69 5 is_stmt 0 view .LVU38
	beq	.L1
	.loc 1 70 3 is_stmt 1 view .LVU39
	.loc 1 71 5 is_stmt 0 view .LVU40
	cmp	r0, #2
	.loc 1 70 14 view .LVU41
	strb	r5, [r1, #1]
	.loc 1 71 2 is_stmt 1 view .LVU42
	.loc 1 71 5 is_stmt 0 view .LVU43
	beq	.L1
	.loc 1 72 3 is_stmt 1 view .LVU44
	.loc 1 73 5 is_stmt 0 view .LVU45
	cmp	r0, #4
	.loc 1 72 14 view .LVU46
	strb	r3, [r1, #2]
	.loc 1 73 2 is_stmt 1 view .LVU47
	.loc 1 74 3 view .LVU48
	.loc 1 74 14 is_stmt 0 view .LVU49
	it	eq
	strbeq	r4, [r1, #3]
.LVL6:
	.loc 1 75 2 is_stmt 1 view .LVU50
.L1:
	.loc 1 76 1 is_stmt 0 view .LVU51
	pop	{r4, r5, r6, pc}
.LVL7:
.L4:
	.loc 1 41 2 is_stmt 1 view .LVU52
	.loc 1 57 4 is_stmt 0 view .LVU53
	and	r3, r3, #63
	.loc 1 41 5 view .LVU54
	cmp	r0, #65536
	.loc 1 60 6 view .LVU55
	ubfx	r6, r0, #12, #8
	.loc 1 58 4 view .LVU56
	orr	r3, r3, #128
	.loc 1 41 5 view .LVU57
	bcs	.L5
.L2:
	.loc 1 42 3 is_stmt 1 view .LVU58
	.loc 1 45 5 is_stmt 0 view .LVU59
	ubfx	r2, r0, #6, #6
	.loc 1 42 5 view .LVU60
	and	r3, r0, #63
.LVL8:
	.loc 1 43 3 is_stmt 1 view .LVU61
	.loc 1 49 5 is_stmt 0 view .LVU62
	ubfx	r0, r0, #12, #8
	.loc 1 46 5 view .LVU63
	orr	r5, r2, #128
	.loc 1 43 5 view .LVU64
	orr	r3, r3, #128
.LVL9:
	.loc 1 44 3 is_stmt 1 view .LVU65
	.loc 1 45 3 view .LVU66
	.loc 1 46 3 view .LVU67
	.loc 1 47 3 view .LVU68
	.loc 1 48 3 view .LVU69
	.loc 1 49 3 view .LVU70
	.loc 1 49 5 is_stmt 0 view .LVU71
	orr	r2, r0, #224
	.loc 1 50 3 is_stmt 1 view .LVU72
.LVL10:
	.loc 1 51 3 view .LVU73
	.loc 1 17 10 is_stmt 0 view .LVU74
	movs	r4, #0
	.loc 1 50 5 view .LVU75
	movs	r0, #3
	.loc 1 51 3 view .LVU76
	b	.L3
.LVL11:
.L10:
	.loc 1 22 8 view .LVU77
	movw	r0, #65533
	b	.L2
.L5:
	.loc 1 54 2 is_stmt 1 view .LVU78
.LVL12:
	.loc 1 55 2 view .LVU79
	.loc 1 56 2 view .LVU80
	.loc 1 57 2 view .LVU81
	.loc 1 58 2 view .LVU82
	.loc 1 59 2 view .LVU83
	.loc 1 60 2 view .LVU84
	.loc 1 64 4 is_stmt 0 view .LVU85
	ubfx	r0, r0, #18, #8
.LVL13:
	.loc 1 60 4 view .LVU86
	and	r6, r6, #63
.LVL14:
	.loc 1 61 2 is_stmt 1 view .LVU87
	.loc 1 62 2 view .LVU88
	.loc 1 63 2 view .LVU89
	.loc 1 64 2 view .LVU90
	.loc 1 64 4 is_stmt 0 view .LVU91
	orr	r2, r0, #240
.LVL15:
	.loc 1 65 2 is_stmt 1 view .LVU92
	.loc 1 55 4 is_stmt 0 view .LVU93
	mov	r4, r5
	.loc 1 65 4 view .LVU94
	movs	r0, #4
	.loc 1 61 4 view .LVU95
	orr	r5, r6, #128
	b	.L3
.LVL16:
.L11:
	.loc 1 17 10 view .LVU96
	movs	r4, #0
	.loc 1 29 5 view .LVU97
	movs	r0, #1
.LVL17:
	.loc 1 16 10 view .LVU98
	mov	r3, r4
.LVL18:
	.loc 1 15 10 view .LVU99
	mov	r5, r4
	b	.L3
.LFE0:
	.size	utf8EncodeRune, .-utf8EncodeRune
	.section	.text.utf8DecodeRune,"ax",%progbits
	.align	1
	.global	utf8DecodeRune
	.syntax unified
	.thumb
	.thumb_func
	.fpu fpv4-sp-d16
	.type	utf8DecodeRune, %function
utf8DecodeRune:
.LVL19:
.LFB1:
	.loc 1 79 1 is_stmt 1 view -0
	@ args = 0, pretend = 0, frame = 0
	@ frame_needed = 0, uses_anonymous_args = 0
	.loc 1 80 2 view .LVU101
	.loc 1 81 2 view .LVU102
	.loc 1 82 2 view .LVU103
	.loc 1 83 2 view .LVU104
	.loc 1 85 2 view .LVU105
	.loc 1 79 1 is_stmt 0 view .LVU106
	push	{r4, r5, r6, r7, lr}
.LCFI1:
	.loc 1 85 4 view .LVU107
	mov	r5, r0
	ldrb	r3, [r5], #1	@ zero_extendqisi2
.LVL20:
	.loc 1 86 2 is_stmt 1 view .LVU108
	.loc 1 86 5 is_stmt 0 view .LVU109
	lsls	r4, r3, #24
	bmi	.L16
.LVL21:
.L39:
	.loc 1 151 9 view .LVU110
	str	r3, [r2]
.LVL22:
	.loc 1 152 3 is_stmt 1 view .LVU111
	.loc 1 153 3 view .LVU112
	.loc 1 153 10 is_stmt 0 view .LVU113
	b	.L15
.LVL23:
.L16:
	.loc 1 94 2 is_stmt 1 view .LVU114
	.loc 1 94 15 is_stmt 0 view .LVU115
	add	r4, r3, #62
	.loc 1 94 5 view .LVU116
	uxtb	r4, r4
	cmp	r4, #50
	bls	.L18
.LVL24:
.L21:
	.loc 1 150 2 is_stmt 1 view .LVU117
	.loc 1 151 3 view .LVU118
	.loc 1 151 9 is_stmt 0 view .LVU119
	movw	r3, #65533
.LVL25:
	.loc 1 151 9 view .LVU120
	b	.L39
.LVL26:
.L18:
	.loc 1 101 2 is_stmt 1 view .LVU121
	.loc 1 102 2 view .LVU122
	.loc 1 103 2 view .LVU123
	add	r4, r3, #32
	uxtb	r4, r4
	cmp	r4, #20
	bhi	.L29
	ldr	r6, .L40
	ldrb	r7, [r6, r4]	@ zero_extendqisi2
	ldr	r6, .L40+4
	.loc 1 126 5 is_stmt 0 view .LVU124
	cmp	r3, #239
	ldrb	r6, [r6, r4]	@ zero_extendqisi2
.LVL27:
	.loc 1 123 2 is_stmt 1 view .LVU125
	.loc 1 124 2 view .LVU126
	.loc 1 126 2 view .LVU127
	.loc 1 126 5 is_stmt 0 view .LVU128
	ite	hi
	movhi	r4, #3
	movls	r4, #2
.LVL28:
.L19:
	.loc 1 128 2 is_stmt 1 view .LVU129
	.loc 1 128 5 is_stmt 0 view .LVU130
	cbz	r1, .L20
	.loc 1 129 3 is_stmt 1 view .LVU131
.LVL29:
	.loc 1 130 3 view .LVU132
	.loc 1 129 8 is_stmt 0 view .LVU133
	subs	r1, r1, #1
.LVL30:
	.loc 1 130 6 view .LVU134
	cmp	r4, r1
	bhi	.L21
.L20:
	.loc 1 130 6 view .LVU135
	mov	r1, r0
.LVL31:
	.loc 1 130 6 view .LVU136
	add	ip, r0, r4
.LVL32:
.L22:
	.loc 1 141 3 is_stmt 1 view .LVU137
	.loc 1 141 5 is_stmt 0 view .LVU138
	ldrb	lr, [r0, #1]!	@ zero_extendqisi2
.LVL33:
	.loc 1 142 3 is_stmt 1 view .LVU139
	.loc 1 142 6 is_stmt 0 view .LVU140
	cmp	lr, r7
	bcc	.L21
	.loc 1 142 25 discriminator 1 view .LVU141
	cmp	lr, r6
	bhi	.L21
.LVL34:
	.loc 1 140 14 is_stmt 1 discriminator 1 view .LVU142
	.loc 1 140 2 is_stmt 0 discriminator 1 view .LVU143
	cmp	ip, r0
	.loc 1 147 17 discriminator 1 view .LVU144
	mov	r7, #128
	.loc 1 148 18 discriminator 1 view .LVU145
	mov	r6, #191
	.loc 1 140 2 discriminator 1 view .LVU146
	bne	.L22
.LVL35:
	.loc 1 150 2 is_stmt 1 view .LVU147
	.loc 1 157 2 view .LVU148
	.loc 1 157 5 is_stmt 0 view .LVU149
	cmp	r3, #223
	bls	.L27
	.loc 1 159 7 is_stmt 1 view .LVU150
	.loc 1 159 10 is_stmt 0 view .LVU151
	cmp	r3, #239
	.loc 1 160 3 is_stmt 1 view .LVU152
	.loc 1 160 13 is_stmt 0 view .LVU153
	ite	ls
	andls	r3, r3, #15
.LVL36:
	.loc 1 162 3 is_stmt 1 view .LVU154
	.loc 1 162 13 is_stmt 0 view .LVU155
	andhi	r3, r3, #7
	b	.L38
.LVL37:
.L29:
	.loc 1 94 5 view .LVU156
	movs	r6, #191
	movs	r7, #128
	.loc 1 123 11 view .LVU157
	movs	r4, #1
	b	.L19
.LVL38:
.L27:
	.loc 1 158 3 is_stmt 1 view .LVU158
	.loc 1 158 13 is_stmt 0 view .LVU159
	and	r3, r3, #31
.LVL39:
.L38:
	.loc 1 162 13 view .LVU160
	str	r3, [r2]
.LVL40:
	.loc 1 163 2 is_stmt 1 view .LVU161
	.loc 1 166 2 view .LVU162
	.loc 1 166 9 view .LVU163
.L26:
	.loc 1 167 3 discriminator 2 view .LVU164
	.loc 1 167 5 is_stmt 0 discriminator 2 view .LVU165
	ldrb	r3, [r1, #1]!	@ zero_extendqisi2
.LVL41:
	.loc 1 168 3 is_stmt 1 discriminator 2 view .LVU166
	.loc 1 169 3 discriminator 2 view .LVU167
	.loc 1 170 3 discriminator 2 view .LVU168
	.loc 1 171 3 discriminator 2 view .LVU169
	.loc 1 170 9 is_stmt 0 discriminator 2 view .LVU170
	ldr	r0, [r2]
	.loc 1 171 9 discriminator 2 view .LVU171
	and	r3, r3, #63
.LVL42:
	.loc 1 171 9 discriminator 2 view .LVU172
	orr	r3, r3, r0, lsl #6
	.loc 1 166 2 discriminator 2 view .LVU173
	cmp	r1, ip
	.loc 1 171 9 discriminator 2 view .LVU174
	str	r3, [r2]
.LVL43:
	.loc 1 166 19 is_stmt 1 discriminator 2 view .LVU175
	.loc 1 166 9 discriminator 2 view .LVU176
	.loc 1 166 2 is_stmt 0 discriminator 2 view .LVU177
	bne	.L26
	.loc 1 168 4 view .LVU178
	add	r5, r5, r4
.LVL44:
.L15:
	.loc 1 175 1 view .LVU179
	mov	r0, r5
	pop	{r4, r5, r6, r7, pc}
.L41:
	.align	2
.L40:
	.word	.LANCHOR0
	.word	.LANCHOR1
.LFE1:
	.size	utf8DecodeRune, .-utf8DecodeRune
	.section	.text.utf16EncodeRune,"ax",%progbits
	.align	1
	.global	utf16EncodeRune
	.syntax unified
	.thumb
	.thumb_func
	.fpu fpv4-sp-d16
	.type	utf16EncodeRune, %function
utf16EncodeRune:
.LVL45:
.LFB2:
	.loc 1 179 1 is_stmt 1 view -0
	@ args = 0, pretend = 0, frame = 0
	@ frame_needed = 0, uses_anonymous_args = 0
	@ link register save eliminated.
	.loc 1 180 2 view .LVU181
	.loc 1 183 2 view .LVU182
	.loc 1 183 5 is_stmt 0 view .LVU183
	cmp	r0, #1114112
	bcs	.L47
	.loc 1 186 2 is_stmt 1 view .LVU184
	.loc 1 186 21 is_stmt 0 view .LVU185
	sub	r3, r0, #55296
	.loc 1 186 5 view .LVU186
	cmp	r3, #2048
	bcc	.L47
	.loc 1 189 2 is_stmt 1 view .LVU187
	.loc 1 189 5 is_stmt 0 view .LVU188
	cmp	r0, #65536
	bcs	.L44
.LVL46:
.L43:
	.loc 1 190 3 is_stmt 1 view .LVU189
	.loc 1 190 16 is_stmt 0 view .LVU190
	strh	r0, [r1]	@ movhi
	.loc 1 191 3 is_stmt 1 view .LVU191
	.loc 1 191 10 is_stmt 0 view .LVU192
	movs	r0, #1
	bx	lr
.LVL47:
.L47:
	.loc 1 184 8 view .LVU193
	movw	r0, #65533
.LVL48:
	.loc 1 184 8 view .LVU194
	b	.L43
.LVL49:
.L44:
	.loc 1 194 2 is_stmt 1 view .LVU195
	.loc 1 194 7 is_stmt 0 view .LVU196
	sub	r0, r0, #65536
.LVL50:
	.loc 1 195 2 is_stmt 1 view .LVU197
	.loc 1 196 2 view .LVU198
	.loc 1 197 2 view .LVU199
	.loc 1 198 2 view .LVU200
	.loc 1 196 7 is_stmt 0 view .LVU201
	lsrs	r3, r0, #10
.LVL51:
	.loc 1 195 6 view .LVU202
	ubfx	r0, r0, #0, #10
.LVL52:
	.loc 1 198 13 view .LVU203
	orr	r3, r3, #55296
.LVL53:
	.loc 1 199 13 view .LVU204
	orr	r0, r0, #56320
	strh	r0, [r1, #2]	@ movhi
	.loc 1 198 13 view .LVU205
	strh	r3, [r1]	@ movhi
	.loc 1 199 2 is_stmt 1 view .LVU206
	.loc 1 200 2 view .LVU207
	.loc 1 200 9 is_stmt 0 view .LVU208
	movs	r0, #2
	.loc 1 201 1 view .LVU209
	bx	lr
.LFE2:
	.size	utf16EncodeRune, .-utf16EncodeRune
	.section	.text.utf16DecodeRune,"ax",%progbits
	.align	1
	.global	utf16DecodeRune
	.syntax unified
	.thumb
	.thumb_func
	.fpu fpv4-sp-d16
	.type	utf16DecodeRune, %function
utf16DecodeRune:
.LVL54:
.LFB3:
	.loc 1 205 1 is_stmt 1 view -0
	@ args = 0, pretend = 0, frame = 0
	@ frame_needed = 0, uses_anonymous_args = 0
	.loc 1 206 2 view .LVU211
	.loc 1 208 2 view .LVU212
	.loc 1 205 1 is_stmt 0 view .LVU213
	push	{r4, lr}
.LCFI2:
	.loc 1 208 6 view .LVU214
	ldrh	r4, [r0]
	.loc 1 208 18 view .LVU215
	add	r3, r4, #10240
	.loc 1 208 5 view .LVU216
	uxth	r3, r3
	cmp	r3, #2048
	bcc	.L49
	.loc 1 210 3 is_stmt 1 view .LVU217
	.loc 1 210 11 is_stmt 0 view .LVU218
	str	r4, [r2]
	.loc 1 211 3 is_stmt 1 view .LVU219
.LVL55:
.L56:
	.loc 1 217 3 view .LVU220
	.loc 1 217 4 is_stmt 0 view .LVU221
	adds	r0, r0, #2
.LVL56:
	.loc 1 218 3 is_stmt 1 view .LVU222
.L48:
	.loc 1 242 1 is_stmt 0 view .LVU223
	pop	{r4, pc}
.LVL57:
.L49:
	.loc 1 214 2 is_stmt 1 view .LVU224
	.loc 1 214 5 is_stmt 0 view .LVU225
	cmp	r4, #56320
	bcc	.L51
.LVL58:
.L52:
	.loc 1 216 3 is_stmt 1 view .LVU226
	.loc 1 216 9 is_stmt 0 view .LVU227
	movw	r3, #65533
	str	r3, [r2]
	b	.L56
.LVL59:
.L51:
	.loc 1 220 2 is_stmt 1 view .LVU228
	.loc 1 220 5 is_stmt 0 view .LVU229
	cmp	r1, #1
	beq	.L52
	.loc 1 225 2 is_stmt 1 view .LVU230
.LVL60:
	.loc 1 226 2 view .LVU231
	.loc 1 227 2 view .LVU232
	.loc 1 227 7 is_stmt 0 view .LVU233
	ldrh	r3, [r0, #2]
	.loc 1 227 20 view .LVU234
	add	r1, r3, #9216
.LVL61:
	.loc 1 227 5 view .LVU235
	uxth	r1, r1
	cmp	r1, #1024
	bcs	.L52
	.loc 1 233 2 is_stmt 1 view .LVU236
.LVL62:
	.loc 1 234 2 view .LVU237
	.loc 1 235 2 view .LVU238
	.loc 1 237 8 is_stmt 0 view .LVU239
	ubfx	r4, r4, #0, #10
.LVL63:
	.loc 1 239 8 view .LVU240
	ubfx	r3, r3, #0, #10
.LVL64:
	.loc 1 239 8 view .LVU241
	orr	r3, r3, r4, lsl #10
	.loc 1 240 8 view .LVU242
	add	r3, r3, #65536
	.loc 1 235 3 view .LVU243
	adds	r0, r0, #4
.LVL65:
	.loc 1 236 2 is_stmt 1 view .LVU244
	.loc 1 237 2 view .LVU245
	.loc 1 238 2 view .LVU246
	.loc 1 239 2 view .LVU247
	.loc 1 240 2 view .LVU248
	.loc 1 240 8 is_stmt 0 view .LVU249
	str	r3, [r2]
	.loc 1 241 2 is_stmt 1 view .LVU250
	.loc 1 241 9 is_stmt 0 view .LVU251
	b	.L48
.LFE3:
	.size	utf16DecodeRune, .-utf16DecodeRune
	.section	.text.utf8RuneCount,"ax",%progbits
	.align	1
	.global	utf8RuneCount
	.syntax unified
	.thumb
	.thumb_func
	.fpu fpv4-sp-d16
	.type	utf8RuneCount, %function
utf8RuneCount:
.LVL66:
.LFB4:
	.loc 1 247 1 is_stmt 1 view -0
	@ args = 0, pretend = 0, frame = 8
	@ frame_needed = 0, uses_anonymous_args = 0
	.loc 1 248 2 view .LVU253
	.loc 1 249 2 view .LVU254
	.loc 1 251 2 view .LVU255
	.loc 1 247 1 is_stmt 0 view .LVU256
	push	{r0, r1, r4, r5, r6, lr}
.LCFI3:
	.loc 1 251 5 view .LVU257
	mov	r4, r1
	cbz	r1, .L58
	mov	r6, r1
.LBB2:
	.loc 1 254 7 view .LVU258
	movs	r4, #0
.LVL67:
.L59:
	.loc 1 257 4 is_stmt 1 view .LVU259
	.loc 1 257 8 is_stmt 0 view .LVU260
	mov	r1, r6
	add	r2, sp, #4
	mov	r5, r0
	bl	utf8DecodeRune
.LVL68:
	.loc 1 258 4 is_stmt 1 view .LVU261
	.loc 1 259 15 is_stmt 0 view .LVU262
	subs	r5, r0, r5
.LVL69:
	.loc 1 256 9 view .LVU263
	subs	r6, r6, r5
.LVL70:
	.loc 1 258 7 view .LVU264
	add	r4, r4, #1
.LVL71:
	.loc 1 259 4 is_stmt 1 view .LVU265
	.loc 1 260 4 view .LVU266
	.loc 1 256 9 view .LVU267
	bne	.L59
.LVL72:
.L60:
	.loc 1 256 9 is_stmt 0 view .LVU268
.LBE2:
	.loc 1 270 1 view .LVU269
	mov	r0, r4
	add	sp, sp, #8
.LCFI4:
	@ sp needed
	pop	{r4, r5, r6, pc}
.LVL73:
.L61:
.LCFI5:
	.loc 1 266 3 is_stmt 1 view .LVU270
	.loc 1 266 7 is_stmt 0 view .LVU271
	add	r2, sp, #4
	movs	r1, #0
	bl	utf8DecodeRune
.LVL74:
	.loc 1 267 3 is_stmt 1 view .LVU272
	.loc 1 267 6 is_stmt 0 view .LVU273
	adds	r4, r4, #1
.LVL75:
.L58:
	.loc 1 265 8 is_stmt 1 view .LVU274
	ldrb	r3, [r0]	@ zero_extendqisi2
	cmp	r3, #0
	bne	.L61
	.loc 1 265 8 is_stmt 0 view .LVU275
	b	.L60
.LFE4:
	.size	utf8RuneCount, .-utf8RuneCount
	.section	.text.utf8UTF16Count,"ax",%progbits
	.align	1
	.global	utf8UTF16Count
	.syntax unified
	.thumb
	.thumb_func
	.fpu fpv4-sp-d16
	.type	utf8UTF16Count, %function
utf8UTF16Count:
.LVL76:
.LFB5:
	.loc 1 273 1 is_stmt 1 view -0
	@ args = 0, pretend = 0, frame = 8
	@ frame_needed = 0, uses_anonymous_args = 0
	.loc 1 274 2 view .LVU277
	.loc 1 275 2 view .LVU278
	.loc 1 276 2 view .LVU279
	.loc 1 278 2 view .LVU280
	.loc 1 273 1 is_stmt 0 view .LVU281
	push	{r0, r1, r2, r4, r5, r6, r7, lr}
.LCFI6:
	.loc 1 273 1 view .LVU282
	mov	r4, r0
	.loc 1 278 5 view .LVU283
	mov	r5, r1
	cbz	r1, .L66
	mov	r7, r1
.LBB3:
	.loc 1 281 7 view .LVU284
	movs	r5, #0
.LVL77:
.L67:
	.loc 1 284 4 is_stmt 1 view .LVU285
	.loc 1 284 8 is_stmt 0 view .LVU286
	mov	r1, r7
	mov	r0, r4
	mov	r2, sp
	bl	utf8DecodeRune
.LVL78:
	mov	r6, r4
	.loc 1 285 11 view .LVU287
	add	r1, sp, #4
	.loc 1 284 8 view .LVU288
	mov	r4, r0
.LVL79:
	.loc 1 285 4 is_stmt 1 view .LVU289
	.loc 1 285 11 is_stmt 0 view .LVU290
	ldr	r0, [sp]
.LVL80:
	.loc 1 285 11 view .LVU291
	bl	utf16EncodeRune
.LVL81:
	.loc 1 286 15 view .LVU292
	subs	r6, r4, r6
.LVL82:
	.loc 1 283 9 view .LVU293
	subs	r7, r7, r6
.LVL83:
	.loc 1 285 8 view .LVU294
	add	r5, r5, r0
.LVL84:
	.loc 1 286 4 is_stmt 1 view .LVU295
	.loc 1 287 4 view .LVU296
	.loc 1 283 9 view .LVU297
	bne	.L67
.LVL85:
.L68:
	.loc 1 283 9 is_stmt 0 view .LVU298
.LBE3:
	.loc 1 297 1 view .LVU299
	mov	r0, r5
	add	sp, sp, #12
.LCFI7:
	@ sp needed
	pop	{r4, r5, r6, r7, pc}
.LVL86:
.L69:
.LCFI8:
	.loc 1 293 3 is_stmt 1 view .LVU300
	.loc 1 293 7 is_stmt 0 view .LVU301
	movs	r1, #0
	mov	r0, r4
	mov	r2, sp
	bl	utf8DecodeRune
.LVL87:
	.loc 1 294 10 view .LVU302
	add	r1, sp, #4
	.loc 1 293 7 view .LVU303
	mov	r4, r0
.LVL88:
	.loc 1 294 3 is_stmt 1 view .LVU304
	.loc 1 294 10 is_stmt 0 view .LVU305
	ldr	r0, [sp]
.LVL89:
	.loc 1 294 10 view .LVU306
	bl	utf16EncodeRune
.LVL90:
	.loc 1 294 7 view .LVU307
	add	r5, r5, r0
.LVL91:
.L66:
	.loc 1 292 8 is_stmt 1 view .LVU308
	ldrb	r3, [r4]	@ zero_extendqisi2
	cmp	r3, #0
	bne	.L69
	.loc 1 292 8 is_stmt 0 view .LVU309
	b	.L68
.LFE5:
	.size	utf8UTF16Count, .-utf8UTF16Count
	.section	.text.utf16RuneCount,"ax",%progbits
	.align	1
	.global	utf16RuneCount
	.syntax unified
	.thumb
	.thumb_func
	.fpu fpv4-sp-d16
	.type	utf16RuneCount, %function
utf16RuneCount:
.LVL92:
.LFB6:
	.loc 1 300 1 is_stmt 1 view -0
	@ args = 0, pretend = 0, frame = 8
	@ frame_needed = 0, uses_anonymous_args = 0
	.loc 1 301 2 view .LVU311
	.loc 1 302 2 view .LVU312
	.loc 1 304 2 view .LVU313
	.loc 1 300 1 is_stmt 0 view .LVU314
	push	{r0, r1, r4, r5, r6, lr}
.LCFI9:
	.loc 1 304 5 view .LVU315
	mov	r4, r1
	cbz	r1, .L74
	mov	r6, r1
.LBB4:
	.loc 1 307 7 view .LVU316
	movs	r4, #0
.LVL93:
.L75:
	.loc 1 310 4 is_stmt 1 view .LVU317
	.loc 1 310 8 is_stmt 0 view .LVU318
	mov	r1, r6
	add	r2, sp, #4
	mov	r5, r0
	bl	utf16DecodeRune
.LVL94:
	.loc 1 311 4 is_stmt 1 view .LVU319
	.loc 1 312 15 is_stmt 0 view .LVU320
	subs	r5, r0, r5
.LVL95:
	.loc 1 309 9 view .LVU321
	subs	r6, r6, r5, asr #1
.LVL96:
	.loc 1 311 7 view .LVU322
	add	r4, r4, #1
.LVL97:
	.loc 1 312 4 is_stmt 1 view .LVU323
	.loc 1 313 4 view .LVU324
	.loc 1 309 9 view .LVU325
	bne	.L75
.LVL98:
.L76:
	.loc 1 309 9 is_stmt 0 view .LVU326
.LBE4:
	.loc 1 323 1 view .LVU327
	mov	r0, r4
	add	sp, sp, #8
.LCFI10:
	@ sp needed
	pop	{r4, r5, r6, pc}
.LVL99:
.L77:
.LCFI11:
	.loc 1 319 3 is_stmt 1 view .LVU328
	.loc 1 319 7 is_stmt 0 view .LVU329
	add	r2, sp, #4
	movs	r1, #0
	bl	utf16DecodeRune
.LVL100:
	.loc 1 320 3 is_stmt 1 view .LVU330
	.loc 1 320 6 is_stmt 0 view .LVU331
	adds	r4, r4, #1
.LVL101:
.L74:
	.loc 1 318 8 is_stmt 1 view .LVU332
	ldrh	r3, [r0]
	cmp	r3, #0
	bne	.L77
	.loc 1 318 8 is_stmt 0 view .LVU333
	b	.L76
.LFE6:
	.size	utf16RuneCount, .-utf16RuneCount
	.section	.text.utf16UTF8Count,"ax",%progbits
	.align	1
	.global	utf16UTF8Count
	.syntax unified
	.thumb
	.thumb_func
	.fpu fpv4-sp-d16
	.type	utf16UTF8Count, %function
utf16UTF8Count:
.LVL102:
.LFB7:
	.loc 1 326 1 is_stmt 1 view -0
	@ args = 0, pretend = 0, frame = 8
	@ frame_needed = 0, uses_anonymous_args = 0
	.loc 1 327 2 view .LVU335
	.loc 1 328 2 view .LVU336
	.loc 1 329 2 view .LVU337
	.loc 1 331 2 view .LVU338
	.loc 1 326 1 is_stmt 0 view .LVU339
	push	{r0, r1, r2, r4, r5, r6, r7, lr}
.LCFI12:
	.loc 1 326 1 view .LVU340
	mov	r4, r0
	.loc 1 331 5 view .LVU341
	mov	r5, r1
	cbz	r1, .L82
	mov	r7, r1
.LBB5:
	.loc 1 334 7 view .LVU342
	movs	r5, #0
.LVL103:
.L83:
	.loc 1 337 4 is_stmt 1 view .LVU343
	.loc 1 337 8 is_stmt 0 view .LVU344
	mov	r1, r7
	mov	r2, sp
	mov	r0, r4
	bl	utf16DecodeRune
.LVL104:
	mov	r6, r4
	.loc 1 338 11 view .LVU345
	add	r1, sp, #4
	.loc 1 337 8 view .LVU346
	mov	r4, r0
.LVL105:
	.loc 1 338 4 is_stmt 1 view .LVU347
	.loc 1 338 11 is_stmt 0 view .LVU348
	ldr	r0, [sp]
.LVL106:
	.loc 1 338 11 view .LVU349
	bl	utf8EncodeRune
.LVL107:
	.loc 1 339 15 view .LVU350
	subs	r6, r4, r6
.LVL108:
	.loc 1 336 9 view .LVU351
	subs	r7, r7, r6, asr #1
.LVL109:
	.loc 1 338 8 view .LVU352
	add	r5, r5, r0
.LVL110:
	.loc 1 339 4 is_stmt 1 view .LVU353
	.loc 1 340 4 view .LVU354
	.loc 1 336 9 view .LVU355
	bne	.L83
.LVL111:
.L84:
	.loc 1 336 9 is_stmt 0 view .LVU356
.LBE5:
	.loc 1 350 1 view .LVU357
	mov	r0, r5
	add	sp, sp, #12
.LCFI13:
	@ sp needed
	pop	{r4, r5, r6, r7, pc}
.LVL112:
.L85:
.LCFI14:
	.loc 1 346 3 is_stmt 1 view .LVU358
	.loc 1 346 7 is_stmt 0 view .LVU359
	mov	r2, sp
	movs	r1, #0
	mov	r0, r4
	bl	utf16DecodeRune
.LVL113:
	.loc 1 347 10 view .LVU360
	add	r1, sp, #4
	.loc 1 346 7 view .LVU361
	mov	r4, r0
.LVL114:
	.loc 1 347 3 is_stmt 1 view .LVU362
	.loc 1 347 10 is_stmt 0 view .LVU363
	ldr	r0, [sp]
.LVL115:
	.loc 1 347 10 view .LVU364
	bl	utf8EncodeRune
.LVL116:
	.loc 1 347 7 view .LVU365
	add	r5, r5, r0
.LVL117:
.L82:
	.loc 1 345 8 is_stmt 1 view .LVU366
	ldrh	r3, [r4]
	cmp	r3, #0
	bne	.L85
	.loc 1 345 8 is_stmt 0 view .LVU367
	b	.L84
.LFE7:
	.size	utf16UTF8Count, .-utf16UTF8Count
	.section	.rodata.CSWTCH.7,"a"
	.set	.LANCHOR0,. + 0
	.type	CSWTCH.7, %object
	.size	CSWTCH.7, 21
CSWTCH.7:
	.byte	-96
	.byte	-128
	.byte	-128
	.byte	-128
	.byte	-128
	.byte	-128
	.byte	-128
	.byte	-128
	.byte	-128
	.byte	-128
	.byte	-128
	.byte	-128
	.byte	-128
	.byte	-128
	.byte	-128
	.byte	-128
	.byte	-112
	.byte	-128
	.byte	-128
	.byte	-128
	.byte	-128
	.section	.rodata.CSWTCH.8,"a"
	.set	.LANCHOR1,. + 0
	.type	CSWTCH.8, %object
	.size	CSWTCH.8, 21
CSWTCH.8:
	.byte	-65
	.byte	-65
	.byte	-65
	.byte	-65
	.byte	-65
	.byte	-65
	.byte	-65
	.byte	-65
	.byte	-65
	.byte	-65
	.byte	-65
	.byte	-65
	.byte	-65
	.byte	-97
	.byte	-65
	.byte	-65
	.byte	-65
	.byte	-65
	.byte	-65
	.byte	-65
	.byte	-113
	.section	.debug_frame,"",%progbits
.Lframe0:
	.4byte	.LECIE0-.LSCIE0
.LSCIE0:
	.4byte	0xffffffff
	.byte	0x3
	.ascii	"\000"
	.uleb128 0x1
	.sleb128 -4
	.uleb128 0xe
	.byte	0xc
	.uleb128 0xd
	.uleb128 0
	.align	2
.LECIE0:
.LSFDE0:
	.4byte	.LEFDE0-.LASFDE0
.LASFDE0:
	.4byte	.Lframe0
	.4byte	.LFB0
	.4byte	.LFE0-.LFB0
	.byte	0x4
	.4byte	.LCFI0-.LFB0
	.byte	0xe
	.uleb128 0x10
	.byte	0x84
	.uleb128 0x4
	.byte	0x85
	.uleb128 0x3
	.byte	0x86
	.uleb128 0x2
	.byte	0x8e
	.uleb128 0x1
	.align	2
.LEFDE0:
.LSFDE2:
	.4byte	.LEFDE2-.LASFDE2
.LASFDE2:
	.4byte	.Lframe0
	.4byte	.LFB1
	.4byte	.LFE1-.LFB1
	.byte	0x4
	.4byte	.LCFI1-.LFB1
	.byte	0xe
	.uleb128 0x14
	.byte	0x84
	.uleb128 0x5
	.byte	0x85
	.uleb128 0x4
	.byte	0x86
	.uleb128 0x3
	.byte	0x87
	.uleb128 0x2
	.byte	0x8e
	.uleb128 0x1
	.align	2
.LEFDE2:
.LSFDE4:
	.4byte	.LEFDE4-.LASFDE4
.LASFDE4:
	.4byte	.Lframe0
	.4byte	.LFB2
	.4byte	.LFE2-.LFB2
	.align	2
.LEFDE4:
.LSFDE6:
	.4byte	.LEFDE6-.LASFDE6
.LASFDE6:
	.4byte	.Lframe0
	.4byte	.LFB3
	.4byte	.LFE3-.LFB3
	.byte	0x4
	.4byte	.LCFI2-.LFB3
	.byte	0xe
	.uleb128 0x8
	.byte	0x84
	.uleb128 0x2
	.byte	0x8e
	.uleb128 0x1
	.align	2
.LEFDE6:
.LSFDE8:
	.4byte	.LEFDE8-.LASFDE8
.LASFDE8:
	.4byte	.Lframe0
	.4byte	.LFB4
	.4byte	.LFE4-.LFB4
	.byte	0x4
	.4byte	.LCFI3-.LFB4
	.byte	0xe
	.uleb128 0x18
	.byte	0x84
	.uleb128 0x4
	.byte	0x85
	.uleb128 0x3
	.byte	0x86
	.uleb128 0x2
	.byte	0x8e
	.uleb128 0x1
	.byte	0x4
	.4byte	.LCFI4-.LCFI3
	.byte	0xa
	.byte	0xe
	.uleb128 0x10
	.byte	0x4
	.4byte	.LCFI5-.LCFI4
	.byte	0xb
	.align	2
.LEFDE8:
.LSFDE10:
	.4byte	.LEFDE10-.LASFDE10
.LASFDE10:
	.4byte	.Lframe0
	.4byte	.LFB5
	.4byte	.LFE5-.LFB5
	.byte	0x4
	.4byte	.LCFI6-.LFB5
	.byte	0xe
	.uleb128 0x20
	.byte	0x84
	.uleb128 0x5
	.byte	0x85
	.uleb128 0x4
	.byte	0x86
	.uleb128 0x3
	.byte	0x87
	.uleb128 0x2
	.byte	0x8e
	.uleb128 0x1
	.byte	0x4
	.4byte	.LCFI7-.LCFI6
	.byte	0xa
	.byte	0xe
	.uleb128 0x14
	.byte	0x4
	.4byte	.LCFI8-.LCFI7
	.byte	0xb
	.align	2
.LEFDE10:
.LSFDE12:
	.4byte	.LEFDE12-.LASFDE12
.LASFDE12:
	.4byte	.Lframe0
	.4byte	.LFB6
	.4byte	.LFE6-.LFB6
	.byte	0x4
	.4byte	.LCFI9-.LFB6
	.byte	0xe
	.uleb128 0x18
	.byte	0x84
	.uleb128 0x4
	.byte	0x85
	.uleb128 0x3
	.byte	0x86
	.uleb128 0x2
	.byte	0x8e
	.uleb128 0x1
	.byte	0x4
	.4byte	.LCFI10-.LCFI9
	.byte	0xa
	.byte	0xe
	.uleb128 0x10
	.byte	0x4
	.4byte	.LCFI11-.LCFI10
	.byte	0xb
	.align	2
.LEFDE12:
.LSFDE14:
	.4byte	.LEFDE14-.LASFDE14
.LASFDE14:
	.4byte	.Lframe0
	.4byte	.LFB7
	.4byte	.LFE7-.LFB7
	.byte	0x4
	.4byte	.LCFI12-.LFB7
	.byte	0xe
	.uleb128 0x20
	.byte	0x84
	.uleb128 0x5
	.byte	0x85
	.uleb128 0x4
	.byte	0x86
	.uleb128 0x3
	.byte	0x87
	.uleb128 0x2
	.byte	0x8e
	.uleb128 0x1
	.byte	0x4
	.4byte	.LCFI13-.LCFI12
	.byte	0xa
	.byte	0xe
	.uleb128 0x14
	.byte	0x4
	.4byte	.LCFI14-.LCFI13
	.byte	0xb
	.align	2
.LEFDE14:
	.text
.Letext0:
	.file 2 "C:/Program Files/SEGGER/SEGGER Embedded Studio for ARM 5.60/include/stddef.h"
	.file 3 "C:/Program Files/SEGGER/SEGGER Embedded Studio for ARM 5.60/include/stdint.h"